target datalayout = "e-m:e-p270:32:32-p271:32:32-p272:64:64-i64:64-i128:128-f80:128-n8:16:32:64-S128"
target triple = "x86_64-pc-linux-gnu"

%"class.std::__cxx11::basic_string" = type { %"struct.std::__cxx11::basic_string<char>::_Alloc_hider", i64, %union.anon }
%"struct.std::__cxx11::basic_string<char>::_Alloc_hider" = type { ptr }
%union.anon = type { i64, [8 x i8] }
%"class.osgeo::proj::util::BaseObject" = type { ptr, %"class.std::unique_ptr.15" }
%"class.std::unique_ptr.15" = type { %"struct.std::__uniq_ptr_data.16" }
%"struct.std::__uniq_ptr_data.16" = type { %"class.std::__uniq_ptr_impl.17" }
%"class.std::__uniq_ptr_impl.17" = type { %"class.std::tuple.18" }
%"class.std::tuple.18" = type { %"struct.std::_Tuple_impl.19" }
%"struct.std::_Tuple_impl.19" = type { %"struct.std::_Head_base.22" }
%"struct.std::_Head_base.22" = type { ptr }
%"class.osgeo::proj::util::optional" = type { i8, %"class.std::__cxx11::basic_string" }
%"class.osgeo::proj::common::Measure" = type { %"class.osgeo::proj::util::BaseObject", %"class.std::unique_ptr.23" }
%"class.std::unique_ptr.23" = type { %"struct.std::__uniq_ptr_data.24" }
%"struct.std::__uniq_ptr_data.24" = type { %"class.std::__uniq_ptr_impl.25" }
%"class.std::__uniq_ptr_impl.25" = type { %"class.std::tuple.26" }
%"class.std::tuple.26" = type { %"struct.std::_Tuple_impl.27" }
%"struct.std::_Tuple_impl.27" = type { %"struct.std::_Head_base.30" }
%"struct.std::_Head_base.30" = type { ptr }
%"class.osgeo::proj::datum::Datum" = type { %"class.osgeo::proj::common::ObjectUsage", %"class.osgeo::proj::io::IJSONExportable", %"class.std::unique_ptr.66" }
%"class.osgeo::proj::common::ObjectUsage" = type { %"class.osgeo::proj::common::IdentifiedObject", %"class.std::unique_ptr.58" }
%"class.osgeo::proj::common::IdentifiedObject" = type { %"class.osgeo::proj::util::BaseObject", %"class.osgeo::proj::util::IComparable", %"class.osgeo::proj::io::IWKTExportable", %"class.std::unique_ptr.50" }
%"class.osgeo::proj::util::IComparable" = type { ptr }
%"class.osgeo::proj::io::IWKTExportable" = type { ptr }
%"class.std::unique_ptr.50" = type { %"struct.std::__uniq_ptr_data.51" }
%"struct.std::__uniq_ptr_data.51" = type { %"class.std::__uniq_ptr_impl.52" }
%"class.std::__uniq_ptr_impl.52" = type { %"class.std::tuple.53" }
%"class.std::tuple.53" = type { %"struct.std::_Tuple_impl.54" }
%"struct.std::_Tuple_impl.54" = type { %"struct.std::_Head_base.57" }
%"struct.std::_Head_base.57" = type { ptr }
%"class.std::unique_ptr.58" = type { %"struct.std::__uniq_ptr_data.59" }
%"struct.std::__uniq_ptr_data.59" = type { %"class.std::__uniq_ptr_impl.60" }
%"class.std::__uniq_ptr_impl.60" = type { %"class.std::tuple.61" }
%"class.std::tuple.61" = type { %"struct.std::_Tuple_impl.62" }
%"struct.std::_Tuple_impl.62" = type { %"struct.std::_Head_base.65" }
%"struct.std::_Head_base.65" = type { ptr }
%"class.osgeo::proj::io::IJSONExportable" = type { ptr }
%"class.std::unique_ptr.66" = type { %"struct.std::__uniq_ptr_data.67" }
%"struct.std::__uniq_ptr_data.67" = type { %"class.std::__uniq_ptr_impl.68" }
%"class.std::__uniq_ptr_impl.68" = type { %"class.std::tuple.69" }
%"class.std::tuple.69" = type { %"struct.std::_Tuple_impl.70" }
%"struct.std::_Tuple_impl.70" = type { %"struct.std::_Head_base.73" }
%"struct.std::_Head_base.73" = type { ptr }
%"class.osgeo::proj::datum::GeodeticReferenceFrame" = type { %"class.osgeo::proj::datum::Datum", %"class.std::unique_ptr.172" }
%"class.std::unique_ptr.172" = type { %"struct.std::__uniq_ptr_data.173" }
%"struct.std::__uniq_ptr_data.173" = type { %"class.std::__uniq_ptr_impl.174" }
%"class.std::__uniq_ptr_impl.174" = type { %"class.std::tuple.175" }
%"class.std::tuple.175" = type { %"struct.std::_Tuple_impl.176" }
%"struct.std::_Tuple_impl.176" = type { %"struct.std::_Head_base.179" }
%"struct.std::_Head_base.179" = type { ptr }
%"class.osgeo::proj::datum::DynamicGeodeticReferenceFrame" = type { %"class.osgeo::proj::datum::GeodeticReferenceFrame", %"class.std::unique_ptr.190" }
%"class.std::unique_ptr.190" = type { %"struct.std::__uniq_ptr_data.191" }
%"struct.std::__uniq_ptr_data.191" = type { %"class.std::__uniq_ptr_impl.192" }
%"class.std::__uniq_ptr_impl.192" = type { %"class.std::tuple.193" }
%"class.std::tuple.193" = type { %"struct.std::_Tuple_impl.194" }
%"struct.std::_Tuple_impl.194" = type { %"struct.std::_Head_base.197" }
%"struct.std::_Head_base.197" = type { ptr }
%"struct.osgeo::proj::datum::DynamicGeodeticReferenceFrame::Private" = type { %"class.osgeo::proj::common::Measure", %"class.osgeo::proj::util::optional" }

; Function Attrs: mustprogress nounwind uwtable
define linkonce_odr hidden noundef nonnull align 1 dereferenceable(1) ptr @_ZNSt10_Head_baseILm1ESt14default_deleteIN5osgeo4proj5datum29DynamicGeodeticReferenceFrame7PrivateEELb1EE7_M_headERS7_(ptr noundef nonnull align 1 dereferenceable(1) %0) #1 comdat align 2 {
  %2 = alloca ptr, align 8
  store ptr %0, ptr %2, align 8
  %3 = load ptr, ptr %2, align 8
  ret ptr %3
}

; Function Attrs: mustprogress nounwind uwtable
define linkonce_odr hidden noundef nonnull align 1 dereferenceable(1) ptr @_ZNSt11_Tuple_implILm1EJSt14default_deleteIN5osgeo4proj5datum29DynamicGeodeticReferenceFrame7PrivateEEEE7_M_headERS7_(ptr noundef nonnull align 1 dereferenceable(1) %0) #1 comdat align 2 {
  %2 = alloca ptr, align 8
  store ptr %0, ptr %2, align 8
  %3 = load ptr, ptr %2, align 8
  %4 = call noundef nonnull align 1 dereferenceable(1) ptr @_ZNSt10_Head_baseILm1ESt14default_deleteIN5osgeo4proj5datum29DynamicGeodeticReferenceFrame7PrivateEELb1EE7_M_headERS7_(ptr noundef nonnull align 1 dereferenceable(1) %3) #18
  ret ptr %4
}

; Function Attrs: mustprogress nounwind uwtable
define linkonce_odr hidden noundef nonnull align 8 dereferenceable(8) ptr @_ZNSt10_Head_baseILm0EPN5osgeo4proj5datum29DynamicGeodeticReferenceFrame7PrivateELb0EE7_M_headERS6_(ptr noundef nonnull align 8 dereferenceable(8) %0) #1 comdat align 2 {
  %2 = alloca ptr, align 8
  store ptr %0, ptr %2, align 8
  %3 = load ptr, ptr %2, align 8
  %4 = getelementptr inbounds %"struct.std::_Head_base.197", ptr %3, i32 0, i32 0
  ret ptr %4
}

; Function Attrs: mustprogress nounwind uwtable
define linkonce_odr hidden noundef nonnull align 1 dereferenceable(1) ptr @_ZSt12__get_helperILm1ESt14default_deleteIN5osgeo4proj5datum29DynamicGeodeticReferenceFrame7PrivateEEJEERT0_RSt11_Tuple_implIXT_EJS7_DpT1_EE(ptr noundef nonnull align 1 dereferenceable(1) %0) #1 comdat {
  %2 = alloca ptr, align 8
  store ptr %0, ptr %2, align 8
  %3 = load ptr, ptr %2, align 8
  %4 = call noundef nonnull align 1 dereferenceable(1) ptr @_ZNSt11_Tuple_implILm1EJSt14default_deleteIN5osgeo4proj5datum29DynamicGeodeticReferenceFrame7PrivateEEEE7_M_headERS7_(ptr noundef nonnull align 1 dereferenceable(1) %3) #18
  ret ptr %4
}

; Function Attrs: mustprogress nounwind uwtable
define linkonce_odr hidden noundef nonnull align 8 dereferenceable(8) ptr @_ZNSt11_Tuple_implILm0EJPN5osgeo4proj5datum29DynamicGeodeticReferenceFrame7PrivateESt14default_deleteIS4_EEE7_M_headERS8_(ptr noundef nonnull align 8 dereferenceable(8) %0) #1 comdat align 2 {
  %2 = alloca ptr, align 8
  store ptr %0, ptr %2, align 8
  %3 = load ptr, ptr %2, align 8
  %4 = call noundef nonnull align 8 dereferenceable(8) ptr @_ZNSt10_Head_baseILm0EPN5osgeo4proj5datum29DynamicGeodeticReferenceFrame7PrivateELb0EE7_M_headERS6_(ptr noundef nonnull align 8 dereferenceable(8) %3) #18
  ret ptr %4
}

; Function Attrs: mustprogress nounwind uwtable
define linkonce_odr hidden void @_ZN5osgeo4proj4util8optionalINSt7__cxx1112basic_stringIcSt11char_traitsIcESaIcEEEED2Ev(ptr noundef nonnull align 8 dereferenceable(40) %0) unnamed_addr #1 comdat align 2 {
  %2 = alloca ptr, align 8
  store ptr %0, ptr %2, align 8
  %3 = load ptr, ptr %2, align 8
  %4 = getelementptr inbounds %"class.osgeo::proj::util::optional", ptr %3, i32 0, i32 1
  call void @_ZNSt7__cxx1112basic_stringIcSt11char_traitsIcESaIcEED1Ev(ptr noundef nonnull align 8 dereferenceable(32) %4) #18
  ret void
}

; Function Attrs: mustprogress nounwind uwtable
define linkonce_odr hidden noundef nonnull align 1 dereferenceable(1) ptr @_ZSt3getILm1EJPN5osgeo4proj5datum29DynamicGeodeticReferenceFrame7PrivateESt14default_deleteIS4_EEERNSt13tuple_elementIXT_ESt5tupleIJDpT0_EEE4typeERSC_(ptr noundef nonnull align 8 dereferenceable(8) %0) #1 comdat {
  %2 = alloca ptr, align 8
  store ptr %0, ptr %2, align 8
  %3 = load ptr, ptr %2, align 8
  %4 = call noundef nonnull align 1 dereferenceable(1) ptr @_ZSt12__get_helperILm1ESt14default_deleteIN5osgeo4proj5datum29DynamicGeodeticReferenceFrame7PrivateEEJEERT0_RSt11_Tuple_implIXT_EJS7_DpT1_EE(ptr noundef nonnull align 1 dereferenceable(1) %3) #18
  ret ptr %4
}

; Function Attrs: mustprogress nounwind uwtable
define linkonce_odr hidden noundef nonnull align 8 dereferenceable(8) ptr @_ZSt12__get_helperILm0EPN5osgeo4proj5datum29DynamicGeodeticReferenceFrame7PrivateEJSt14default_deleteIS4_EEERT0_RSt11_Tuple_implIXT_EJS8_DpT1_EE(ptr noundef nonnull align 8 dereferenceable(8) %0) #1 comdat {
  %2 = alloca ptr, align 8
  store ptr %0, ptr %2, align 8
  %3 = load ptr, ptr %2, align 8
  %4 = call noundef nonnull align 8 dereferenceable(8) ptr @_ZNSt11_Tuple_implILm0EJPN5osgeo4proj5datum29DynamicGeodeticReferenceFrame7PrivateESt14default_deleteIS4_EEE7_M_headERS8_(ptr noundef nonnull align 8 dereferenceable(8) %3) #18
  ret ptr %4
}

; Function Attrs: mustprogress nounwind uwtable
define linkonce_odr hidden void @_ZN5osgeo4proj5datum29DynamicGeodeticReferenceFrame7PrivateD2Ev(ptr noundef nonnull align 8 dereferenceable(64) %0) unnamed_addr #1 comdat align 2 {
  %2 = alloca ptr, align 8
  store ptr %0, ptr %2, align 8
  %3 = load ptr, ptr %2, align 8
  %4 = getelementptr inbounds %"struct.osgeo::proj::datum::DynamicGeodeticReferenceFrame::Private", ptr %3, i32 0, i32 1
  call void @_ZN5osgeo4proj4util8optionalINSt7__cxx1112basic_stringIcSt11char_traitsIcESaIcEEEED2Ev(ptr noundef nonnull align 8 dereferenceable(40) %4) #18
  %5 = getelementptr inbounds %"struct.osgeo::proj::datum::DynamicGeodeticReferenceFrame::Private", ptr %3, i32 0, i32 0
  call void @_ZN5osgeo4proj6common7MeasureD1Ev(ptr noundef nonnull align 8 dereferenceable(24) %5) #18
  ret void
}

; Function Attrs: mustprogress nounwind uwtable
define linkonce_odr hidden noundef nonnull align 1 dereferenceable(1) ptr @_ZNSt15__uniq_ptr_implIN5osgeo4proj5datum29DynamicGeodeticReferenceFrame7PrivateESt14default_deleteIS4_EE10_M_deleterEv(ptr noundef nonnull align 8 dereferenceable(8) %0) #1 comdat align 2 {
  %2 = alloca ptr, align 8
  store ptr %0, ptr %2, align 8
  %3 = load ptr, ptr %2, align 8
  %4 = getelementptr inbounds %"class.std::__uniq_ptr_impl.192", ptr %3, i32 0, i32 0
  %5 = call noundef nonnull align 1 dereferenceable(1) ptr @_ZSt3getILm1EJPN5osgeo4proj5datum29DynamicGeodeticReferenceFrame7PrivateESt14default_deleteIS4_EEERNSt13tuple_elementIXT_ESt5tupleIJDpT0_EEE4typeERSC_(ptr noundef nonnull align 8 dereferenceable(8) %4) #18
  ret ptr %5
}

; Function Attrs: mustprogress nounwind uwtable
define linkonce_odr hidden noundef nonnull align 8 dereferenceable(8) ptr @_ZSt3getILm0EJPN5osgeo4proj5datum29DynamicGeodeticReferenceFrame7PrivateESt14default_deleteIS4_EEERNSt13tuple_elementIXT_ESt5tupleIJDpT0_EEE4typeERSC_(ptr noundef nonnull align 8 dereferenceable(8) %0) #1 comdat {
  %2 = alloca ptr, align 8
  store ptr %0, ptr %2, align 8
  %3 = load ptr, ptr %2, align 8
  %4 = call noundef nonnull align 8 dereferenceable(8) ptr @_ZSt12__get_helperILm0EPN5osgeo4proj5datum29DynamicGeodeticReferenceFrame7PrivateEJSt14default_deleteIS4_EEERT0_RSt11_Tuple_implIXT_EJS8_DpT1_EE(ptr noundef nonnull align 8 dereferenceable(8) %3) #18
  ret ptr %4
}

; Function Attrs: noreturn nounwind uwtable
define linkonce_odr hidden void @__clang_call_terminate(ptr noundef %0) #12 comdat {
  %2 = call ptr @__cxa_begin_catch(ptr %0) #18
  call void @_ZSt9terminatev() #21
  unreachable
}

; Function Attrs: mustprogress nounwind uwtable
define linkonce_odr hidden void @_ZNKSt14default_deleteIN5osgeo4proj5datum29DynamicGeodeticReferenceFrame7PrivateEEclEPS4_(ptr noundef nonnull align 1 dereferenceable(1) %0, ptr noundef %1) #1 comdat align 2 {
  %3 = alloca ptr, align 8
  %4 = alloca ptr, align 8
  store ptr %0, ptr %3, align 8
  store ptr %1, ptr %4, align 8
  %5 = load ptr, ptr %4, align 8
  %6 = icmp eq ptr %5, null
  br i1 %6, label %8, label %7

7:                                                ; preds = %2
  call void @_ZN5osgeo4proj5datum29DynamicGeodeticReferenceFrame7PrivateD2Ev(ptr noundef nonnull align 8 dereferenceable(64) %5) #18
  call void @_ZdlPv(ptr noundef %5) #20
  br label %8

8:                                                ; preds = %7, %2
  ret void
}

; Function Attrs: mustprogress nounwind uwtable
define linkonce_odr hidden noundef nonnull align 1 dereferenceable(1) ptr @_ZNSt10unique_ptrIN5osgeo4proj5datum29DynamicGeodeticReferenceFrame7PrivateESt14default_deleteIS4_EE11get_deleterEv(ptr noundef nonnull align 8 dereferenceable(8) %0) #1 comdat align 2 {
  %2 = alloca ptr, align 8
  store ptr %0, ptr %2, align 8
  %3 = load ptr, ptr %2, align 8
  %4 = getelementptr inbounds %"class.std::unique_ptr.190", ptr %3, i32 0, i32 0
  %5 = call noundef nonnull align 1 dereferenceable(1) ptr @_ZNSt15__uniq_ptr_implIN5osgeo4proj5datum29DynamicGeodeticReferenceFrame7PrivateESt14default_deleteIS4_EE10_M_deleterEv(ptr noundef nonnull align 8 dereferenceable(8) %4) #18
  ret ptr %5
}

; Function Attrs: mustprogress nounwind uwtable
define linkonce_odr hidden noundef nonnull align 8 dereferenceable(8) ptr @_ZNSt15__uniq_ptr_implIN5osgeo4proj5datum29DynamicGeodeticReferenceFrame7PrivateESt14default_deleteIS4_EE6_M_ptrEv(ptr noundef nonnull align 8 dereferenceable(8) %0) #1 comdat align 2 {
  %2 = alloca ptr, align 8
  store ptr %0, ptr %2, align 8
  %3 = load ptr, ptr %2, align 8
  %4 = getelementptr inbounds %"class.std::__uniq_ptr_impl.192", ptr %3, i32 0, i32 0
  %5 = call noundef nonnull align 8 dereferenceable(8) ptr @_ZSt3getILm0EJPN5osgeo4proj5datum29DynamicGeodeticReferenceFrame7PrivateESt14default_deleteIS4_EEERNSt13tuple_elementIXT_ESt5tupleIJDpT0_EEE4typeERSC_(ptr noundef nonnull align 8 dereferenceable(8) %4) #18
  ret ptr %5
}

; Function Attrs: mustprogress nounwind uwtable
define linkonce_odr hidden void @_ZNSt10unique_ptrIN5osgeo4proj5datum29DynamicGeodeticReferenceFrame7PrivateESt14default_deleteIS4_EED2Ev(ptr noundef nonnull align 8 dereferenceable(8) %0) unnamed_addr #1 comdat align 2 personality ptr @__gxx_personality_v0 {
  %2 = alloca ptr, align 8
  %3 = alloca ptr, align 8
  store ptr %0, ptr %2, align 8
  %4 = load ptr, ptr %2, align 8
  %5 = getelementptr inbounds %"class.std::unique_ptr.190", ptr %4, i32 0, i32 0
  %6 = call noundef nonnull align 8 dereferenceable(8) ptr @_ZNSt15__uniq_ptr_implIN5osgeo4proj5datum29DynamicGeodeticReferenceFrame7PrivateESt14default_deleteIS4_EE6_M_ptrEv(ptr noundef nonnull align 8 dereferenceable(8) %5) #18
  store ptr %6, ptr %3, align 8
  %7 = load ptr, ptr %3, align 8
  %8 = load ptr, ptr %7, align 8
  %9 = icmp ne ptr %8, null
  br i1 %9, label %10, label %15

10:                                               ; preds = %1
  %11 = call noundef nonnull align 1 dereferenceable(1) ptr @_ZNSt10unique_ptrIN5osgeo4proj5datum29DynamicGeodeticReferenceFrame7PrivateESt14default_deleteIS4_EE11get_deleterEv(ptr noundef nonnull align 8 dereferenceable(8) %4) #18
  %12 = load ptr, ptr %3, align 8
  %13 = load ptr, ptr %12, align 8
  invoke void @_ZNKSt14default_deleteIN5osgeo4proj5datum29DynamicGeodeticReferenceFrame7PrivateEEclEPS4_(ptr noundef nonnull align 1 dereferenceable(1) %11, ptr noundef %13)
          to label %14 unwind label %17

14:                                               ; preds = %10
  br label %15

15:                                               ; preds = %14, %1
  %16 = load ptr, ptr %3, align 8
  store ptr null, ptr %16, align 8
  ret void

17:                                               ; preds = %10
  %18 = landingpad { ptr, i32 }
          catch ptr null
  %19 = extractvalue { ptr, i32 } %18, 0
  call void @__clang_call_terminate(ptr %19) #21
  unreachable
}

; Function Attrs: mustprogress nounwind uwtable
define void @_ZN5osgeo4proj5datum29DynamicGeodeticReferenceFrameD2Ev(ptr noundef nonnull align 8 dereferenceable(80) %0) unnamed_addr #1 align 2 {
  %2 = alloca ptr, align 8
  store ptr %0, ptr %2, align 8
  %3 = load ptr, ptr %2, align 8
  %4 = getelementptr inbounds %"class.osgeo::proj::datum::DynamicGeodeticReferenceFrame", ptr %3, i32 0, i32 1
  call void @_ZNSt10unique_ptrIN5osgeo4proj5datum29DynamicGeodeticReferenceFrame7PrivateESt14default_deleteIS4_EED2Ev(ptr noundef nonnull align 8 dereferenceable(8) %4) #18
  call void @_ZN5osgeo4proj5datum22GeodeticReferenceFrameD2Ev(ptr noundef nonnull align 8 dereferenceable(72) %3) #18
  ret void
}